; Function Attrs: nounwind uwtable
define internal void @mbuf_dealloc(ptr noundef %0) #0 {
  %2 = getelementptr inbounds nuw i8, ptr %0, i64 16
  %3 = load i32, ptr %2, align 8, !tbaa !4
  %4 = and i32 %3, 1
  %.not.i = icmp eq i32 %4, 0
  br i1 %.not.i, label %5, label %mbuf_release.exit

5:                                                ; preds = %1
  %6 = or disjoint i32 %3, 1
  store i32 %6, ptr %2, align 8, !tbaa !4
  %7 = getelementptr i8, ptr %0, i64 -16
  %8 = getelementptr i8, ptr %0, i64 -8
  %.val.i.i = load i64, ptr %8, align 8, !tbaa !17
  %9 = and i64 %.val.i.i, -4
  %10 = inttoptr i64 %9 to ptr
  %.val9.i.i = load i64, ptr %7, align 8, !tbaa !19
  %11 = and i64 %.val9.i.i, -4
  %12 = inttoptr i64 %11 to ptr
  %13 = load i64, ptr %10, align 8, !tbaa !19
  %14 = and i64 %13, 3
  %15 = or disjoint i64 %14, %11
  store i64 %15, ptr %10, align 8, !tbaa !19
  %16 = getelementptr inbounds nuw i8, ptr %12, i64 8
  %17 = load i64, ptr %16, align 8, !tbaa !17
  %18 = and i64 %17, 3
  %19 = or disjoint i64 %18, %9
  store i64 %19, ptr %16, align 8, !tbaa !17
  store i64 0, ptr %7, align 8, !tbaa !19
  %20 = load i64, ptr %8, align 8, !tbaa !17
  %21 = and i64 %20, 1
  store i64 %21, ptr %8, align 8, !tbaa !17
  %22 = getelementptr inbounds nuw i8, ptr %0, i64 32
  tail call void @PyBuffer_Release(ptr noundef nonnull %22) #14
  %.pre = load i32, ptr %2, align 8, !tbaa !4
  br label %mbuf_release.exit

mbuf_release.exit:                                ; preds = %1, %5
  %23 = phi i32 [ %3, %1 ], [ %.pre, %5 ]
  %24 = and i32 %23, 2
  %.not = icmp eq i32 %24, 0
  br i1 %.not, label %28, label %25

25:                                               ; preds = %mbuf_release.exit
  %26 = getelementptr inbounds nuw i8, ptr %0, i64 72
  %27 = load ptr, ptr %26, align 8, !tbaa !20
  tail call void @PyMem_Free(ptr noundef %27) #14
  br label %28

28:                                               ; preds = %25, %mbuf_release.exit
  tail call void @PyObject_GC_Del(ptr noundef nonnull %0) #14
  ret void
}